; Function Attrs: nounwind memory(readwrite, argmem: read) uwtable
define noalias noundef ptr @LoadUTF8(ptr noundef readonly captures(none) %0, i32 noundef %1) local_unnamed_addr #31 {
  %3 = mul nsw i32 %1, 5
  %4 = sext i32 %3 to i64
  %5 = tail call noalias ptr @calloc(i64 noundef %4, i64 noundef 1) #42
  %6 = icmp sgt i32 %1, 0
  br i1 %6, label %.lr.ph.preheader, label %._crit_edge

.lr.ph.preheader:                                 ; preds = %2
  %wide.trip.count = zext nneg i32 %1 to i64
  br label %.lr.ph

._crit_edge.loopexit:                             ; preds = %CodepointToUTF8.exit
  %7 = add nuw nsw i32 %57, 1
  %8 = zext nneg i32 %7 to i64
  br label %._crit_edge

._crit_edge:                                      ; preds = %._crit_edge.loopexit, %2
  %.015.lcssa = phi i64 [ 1, %2 ], [ %8, %._crit_edge.loopexit ]
  %9 = tail call ptr @realloc(ptr noundef %5, i64 noundef %.015.lcssa) #45
  %.not = icmp eq ptr %9, null
  %spec.select = select i1 %.not, ptr %5, ptr %9
  ret ptr %spec.select

.lr.ph:                                           ; preds = %.lr.ph.preheader, %CodepointToUTF8.exit
  %indvars.iv = phi i64 [ 0, %.lr.ph.preheader ], [ %indvars.iv.next, %CodepointToUTF8.exit ]
  %.01517 = phi i32 [ 0, %.lr.ph.preheader ], [ %57, %CodepointToUTF8.exit ]
  %10 = getelementptr inbounds nuw i32, ptr %0, i64 %indvars.iv
  %11 = load i32, ptr %10, align 4
  tail call void @llvm.memset.p0.i64(ptr noundef nonnull align 1 dereferenceable(6) @CodepointToUTF8.utf8, i8 0, i64 6, i1 false)
  %12 = icmp slt i32 %11, 128
  br i1 %12, label %13, label %15

13:                                               ; preds = %.lr.ph
  %14 = trunc i32 %11 to i8
  store i8 %14, ptr @CodepointToUTF8.utf8, align 1
  br label %CodepointToUTF8.exit

15:                                               ; preds = %.lr.ph
  %16 = icmp samesign ult i32 %11, 2048
  br i1 %16, label %17, label %24

17:                                               ; preds = %15
  %18 = lshr i32 %11, 6
  %19 = trunc nuw i32 %18 to i8
  %20 = or disjoint i8 %19, -64
  store i8 %20, ptr @CodepointToUTF8.utf8, align 1
  %21 = trunc i32 %11 to i8
  %22 = and i8 %21, 63
  %23 = or disjoint i8 %22, -128
  store i8 %23, ptr getelementptr inbounds nuw (i8, ptr @CodepointToUTF8.utf8, i64 1), align 1
  br label %CodepointToUTF8.exit

24:                                               ; preds = %15
  %25 = icmp samesign ult i32 %11, 65536
  br i1 %25, label %26, label %37

26:                                               ; preds = %24
  %27 = lshr i32 %11, 12
  %28 = trunc nuw i32 %27 to i8
  %29 = or disjoint i8 %28, -32
  store i8 %29, ptr @CodepointToUTF8.utf8, align 1
  %30 = lshr i32 %11, 6
  %31 = trunc i32 %30 to i8
  %32 = and i8 %31, 63
  %33 = or disjoint i8 %32, -128
  store i8 %33, ptr getelementptr inbounds nuw (i8, ptr @CodepointToUTF8.utf8, i64 1), align 1
  %34 = trunc i32 %11 to i8
  %35 = and i8 %34, 63
  %36 = or disjoint i8 %35, -128
  store i8 %36, ptr getelementptr inbounds nuw (i8, ptr @CodepointToUTF8.utf8, i64 2), align 1
  br label %CodepointToUTF8.exit

37:                                               ; preds = %24
  %38 = icmp samesign ult i32 %11, 1114112
  br i1 %38, label %39, label %CodepointToUTF8.exit

39:                                               ; preds = %37
  %40 = lshr i32 %11, 18
  %41 = trunc nuw i32 %40 to i8
  %42 = or disjoint i8 %41, -16
  store i8 %42, ptr @CodepointToUTF8.utf8, align 1
  %43 = lshr i32 %11, 12
  %44 = trunc i32 %43 to i8
  %45 = and i8 %44, 63
  %46 = or disjoint i8 %45, -128
  store i8 %46, ptr getelementptr inbounds nuw (i8, ptr @CodepointToUTF8.utf8, i64 1), align 1
  %47 = lshr i32 %11, 6
  %48 = trunc i32 %47 to i8
  %49 = and i8 %48, 63
  %50 = or disjoint i8 %49, -128
  store i8 %50, ptr getelementptr inbounds nuw (i8, ptr @CodepointToUTF8.utf8, i64 2), align 1
  %51 = trunc i32 %11 to i8
  %52 = and i8 %51, 63
  %53 = or disjoint i8 %52, -128
  store i8 %53, ptr getelementptr inbounds nuw (i8, ptr @CodepointToUTF8.utf8, i64 3), align 1
  br label %CodepointToUTF8.exit

CodepointToUTF8.exit:                             ; preds = %13, %17, %26, %37, %39
  %.0.i = phi i32 [ 1, %13 ], [ 2, %17 ], [ 3, %26 ], [ 4, %39 ], [ 0, %37 ]
  %54 = zext nneg i32 %.01517 to i64
  %55 = getelementptr inbounds nuw i8, ptr %5, i64 %54
  %56 = zext nneg i32 %.0.i to i64
  tail call void @llvm.memcpy.p0.p0.i64(ptr align 1 %55, ptr nonnull align 1 @CodepointToUTF8.utf8, i64 %56, i1 false)
  %57 = add nuw nsw i32 %.0.i, %.01517
  %indvars.iv.next = add nuw nsw i64 %indvars.iv, 1
  %exitcond.not = icmp eq i64 %indvars.iv.next, %wide.trip.count
  br i1 %exitcond.not, label %._crit_edge.loopexit, label %.lr.ph
}